target datalayout = "e-m:e-p270:32:32-p271:32:32-p272:64:64-i64:64-i128:128-f80:128-n8:16:32:64-S128"
target triple = "x86_64-pc-linux-gnu"

@.str = private unnamed_addr constant [36 x i8] c"../openssl/crypto/objects/obj_dat.c\00", align 1
@__func__.OBJ_txt2obj = private unnamed_addr constant [12 x i8] c"OBJ_txt2obj\00", align 1

; Function Attrs: nounwind uwtable
define ptr @OBJ_txt2obj(ptr noundef %0, i32 noundef %1) #0 {
  %3 = alloca ptr, align 8
  %4 = alloca ptr, align 8
  %5 = alloca i32, align 4
  %6 = alloca i32, align 4
  %7 = alloca ptr, align 8
  %8 = alloca ptr, align 8
  %9 = alloca ptr, align 8
  %10 = alloca ptr, align 8
  %11 = alloca i32, align 4
  %12 = alloca i32, align 4
  %13 = alloca i32, align 4
  store ptr %0, ptr %4, align 8, !tbaa !26
  store i32 %1, ptr %5, align 4, !tbaa !21
  call void @llvm.lifetime.start.p0(i64 4, ptr %6) #6
  store i32 0, ptr %6, align 4, !tbaa !21
  call void @llvm.lifetime.start.p0(i64 8, ptr %7) #6
  store ptr null, ptr %7, align 8, !tbaa !23
  call void @llvm.lifetime.start.p0(i64 8, ptr %8) #6
  call void @llvm.lifetime.start.p0(i64 8, ptr %9) #6
  call void @llvm.lifetime.start.p0(i64 8, ptr %10) #6
  call void @llvm.lifetime.start.p0(i64 4, ptr %11) #6
  call void @llvm.lifetime.start.p0(i64 4, ptr %12) #6
  %14 = load i32, ptr %5, align 4, !tbaa !21
  %15 = icmp ne i32 %14, 0
  br i1 %15, label %35, label %16

16:                                               ; preds = %2
  %17 = load ptr, ptr %4, align 8, !tbaa !26
  %18 = call i32 @OBJ_sn2nid(ptr noundef %17)
  store i32 %18, ptr %6, align 4, !tbaa !21
  %19 = icmp ne i32 %18, 0
  br i1 %19, label %24, label %20

20:                                               ; preds = %16
  %21 = load ptr, ptr %4, align 8, !tbaa !26
  %22 = call i32 @OBJ_ln2nid(ptr noundef %21)
  store i32 %22, ptr %6, align 4, !tbaa !21
  %23 = icmp ne i32 %22, 0
  br i1 %23, label %24, label %27

24:                                               ; preds = %20, %16
  %25 = load i32, ptr %6, align 4, !tbaa !21
  %26 = call ptr @OBJ_nid2obj(i32 noundef %25)
  store ptr %26, ptr %3, align 8
  store i32 1, ptr %13, align 4
  br label %66

27:                                               ; preds = %20
  %28 = load ptr, ptr %4, align 8, !tbaa !26
  %29 = load i8, ptr %28, align 1, !tbaa !27
  %30 = sext i8 %29 to i32
  %31 = call i32 @ossl_isdigit(i32 noundef %30)
  %32 = icmp ne i32 %31, 0
  br i1 %32, label %34, label %33

33:                                               ; preds = %27
  call void @ERR_new()
  call void @ERR_set_debug(ptr noundef @.str, i32 noundef 438, ptr noundef @__func__.OBJ_txt2obj)
  call void (i32, i32, ptr, ...) @ERR_set_error(i32 noundef 8, i32 noundef 103, ptr noundef null)
  store ptr null, ptr %3, align 8
  store i32 1, ptr %13, align 4
  br label %66

34:                                               ; preds = %27
  br label %35

35:                                               ; preds = %34, %2
  %36 = load ptr, ptr %4, align 8, !tbaa !26
  %37 = call i32 @a2d_ASN1_OBJECT(ptr noundef null, i32 noundef 0, ptr noundef %36, i32 noundef -1)
  store i32 %37, ptr %11, align 4, !tbaa !21
  %38 = load i32, ptr %11, align 4, !tbaa !21
  %39 = icmp sle i32 %38, 0
  br i1 %39, label %40, label %41

40:                                               ; preds = %35
  store ptr null, ptr %3, align 8
  store i32 1, ptr %13, align 4
  br label %66

41:                                               ; preds = %35
  %42 = load i32, ptr %11, align 4, !tbaa !21
  %43 = call i32 @ASN1_object_size(i32 noundef 0, i32 noundef %42, i32 noundef 6)
  store i32 %43, ptr %12, align 4, !tbaa !21
  %44 = load i32, ptr %12, align 4, !tbaa !21
  %45 = icmp slt i32 %44, 0
  br i1 %45, label %46, label %47

46:                                               ; preds = %41
  store ptr null, ptr %3, align 8
  store i32 1, ptr %13, align 4
  br label %66

47:                                               ; preds = %41
  %48 = load i32, ptr %12, align 4, !tbaa !21
  %49 = sext i32 %48 to i64
  %50 = call noalias ptr @CRYPTO_malloc(i64 noundef %49, ptr noundef @.str, i32 noundef 453)
  store ptr %50, ptr %8, align 8, !tbaa !26
  %51 = icmp eq ptr %50, null
  br i1 %51, label %52, label %53

52:                                               ; preds = %47
  store ptr null, ptr %3, align 8
  store i32 1, ptr %13, align 4
  br label %66

53:                                               ; preds = %47
  %54 = load ptr, ptr %8, align 8, !tbaa !26
  store ptr %54, ptr %9, align 8, !tbaa !26
  %55 = load i32, ptr %11, align 4, !tbaa !21
  call void @ASN1_put_object(ptr noundef %9, i32 noundef 0, i32 noundef %55, i32 noundef 6, i32 noundef 0)
  %56 = load ptr, ptr %9, align 8, !tbaa !26
  %57 = load i32, ptr %11, align 4, !tbaa !21
  %58 = load ptr, ptr %4, align 8, !tbaa !26
  %59 = call i32 @a2d_ASN1_OBJECT(ptr noundef %56, i32 noundef %57, ptr noundef %58, i32 noundef -1)
  %60 = load ptr, ptr %8, align 8, !tbaa !26
  store ptr %60, ptr %10, align 8, !tbaa !26
  %61 = load i32, ptr %12, align 4, !tbaa !21
  %62 = sext i32 %61 to i64
  %63 = call ptr @d2i_ASN1_OBJECT(ptr noundef null, ptr noundef %10, i64 noundef %62)
  store ptr %63, ptr %7, align 8, !tbaa !23
  %64 = load ptr, ptr %8, align 8, !tbaa !26
  call void @CRYPTO_free(ptr noundef %64, ptr noundef @.str, i32 noundef 464)
  %65 = load ptr, ptr %7, align 8, !tbaa !23
  store ptr %65, ptr %3, align 8
  store i32 1, ptr %13, align 4
  br label %66

66:                                               ; preds = %53, %52, %46, %40, %33, %24
  call void @llvm.lifetime.end.p0(i64 4, ptr %12) #6
  call void @llvm.lifetime.end.p0(i64 4, ptr %11) #6
  call void @llvm.lifetime.end.p0(i64 8, ptr %10) #6
  call void @llvm.lifetime.end.p0(i64 8, ptr %9) #6
  call void @llvm.lifetime.end.p0(i64 8, ptr %8) #6
  call void @llvm.lifetime.end.p0(i64 8, ptr %7) #6
  call void @llvm.lifetime.end.p0(i64 4, ptr %6) #6
  %67 = load ptr, ptr %3, align 8
  ret ptr %67
}