; Function Attrs: nounwind uwtable
define ptr @OBJ_txt2obj(ptr noundef %0, i32 noundef %1) local_unnamed_addr #0 {
  %3 = alloca ptr, align 8
  %4 = alloca ptr, align 8
  call void @llvm.lifetime.start.p0(i64 8, ptr nonnull %3) #10
  call void @llvm.lifetime.start.p0(i64 8, ptr nonnull %4) #10
  %.not = icmp eq i32 %1, 0
  br i1 %.not, label %5, label %16

5:                                                ; preds = %2
  %6 = tail call i32 @OBJ_sn2nid(ptr noundef %0)
  %.not24 = icmp eq i32 %6, 0
  br i1 %.not24, label %7, label %9

7:                                                ; preds = %5
  %8 = tail call i32 @OBJ_ln2nid(ptr noundef %0)
  %.not25 = icmp eq i32 %8, 0
  br i1 %.not25, label %11, label %9

9:                                                ; preds = %7, %5
  %.018 = phi i32 [ %6, %5 ], [ %8, %7 ]
  %10 = tail call ptr @OBJ_nid2obj(i32 noundef %.018)
  br label %30

11:                                               ; preds = %7
  %12 = load i8, ptr %0, align 1, !tbaa !20
  %13 = sext i8 %12 to i32
  %14 = tail call i32 @ossl_isdigit(i32 noundef %13) #10
  %.not26 = icmp eq i32 %14, 0
  br i1 %.not26, label %15, label %16

15:                                               ; preds = %11
  tail call void @ERR_new() #10
  tail call void @ERR_set_debug(ptr noundef nonnull @.str, i32 noundef 438, ptr noundef nonnull @__func__.OBJ_txt2obj) #10
  tail call void (i32, i32, ptr, ...) @ERR_set_error(i32 noundef 8, i32 noundef 103, ptr noundef null) #10
  br label %30

16:                                               ; preds = %11, %2
  %17 = tail call i32 @a2d_ASN1_OBJECT(ptr noundef null, i32 noundef 0, ptr noundef %0, i32 noundef -1) #10
  %18 = icmp slt i32 %17, 1
  br i1 %18, label %30, label %19

19:                                               ; preds = %16
  %20 = tail call i32 @ASN1_object_size(i32 noundef 0, i32 noundef %17, i32 noundef 6) #10
  %21 = icmp slt i32 %20, 0
  br i1 %21, label %30, label %22

22:                                               ; preds = %19
  %23 = zext nneg i32 %20 to i64
  %24 = tail call noalias ptr @CRYPTO_malloc(i64 noundef %23, ptr noundef nonnull @.str, i32 noundef 453) #10
  %25 = icmp eq ptr %24, null
  br i1 %25, label %30, label %26

26:                                               ; preds = %22
  store ptr %24, ptr %3, align 8, !tbaa !21
  call void @ASN1_put_object(ptr noundef nonnull %3, i32 noundef 0, i32 noundef %17, i32 noundef 6, i32 noundef 0) #10
  %27 = load ptr, ptr %3, align 8, !tbaa !21
  %28 = call i32 @a2d_ASN1_OBJECT(ptr noundef %27, i32 noundef %17, ptr noundef %0, i32 noundef -1) #10
  store ptr %24, ptr %4, align 8, !tbaa !21
  %29 = call ptr @d2i_ASN1_OBJECT(ptr noundef null, ptr noundef nonnull %4, i64 noundef %23) #10
  call void @CRYPTO_free(ptr noundef nonnull %24, ptr noundef nonnull @.str, i32 noundef 464) #10
  br label %30

30:                                               ; preds = %22, %19, %16, %26, %15, %9
  %.0 = phi ptr [ %29, %26 ], [ %10, %9 ], [ null, %15 ], [ null, %16 ], [ null, %19 ], [ null, %22 ]
  call void @llvm.lifetime.end.p0(i64 8, ptr nonnull %4) #10
  call void @llvm.lifetime.end.p0(i64 8, ptr nonnull %3) #10
  ret ptr %.0
}